target datalayout = "e-m:e-p270:32:32-p271:32:32-p272:64:64-i64:64-i128:128-f80:128-n8:16:32:64-S128"
target triple = "x86_64-pc-linux-gnu"

%"struct.Luau::TypePackVar" = type { %"class.Luau::Variant", i8, ptr }
%"class.Luau::Variant" = type { i32, [4 x i8], [64 x i8] }
%"class.std::optional" = type { %"struct.std::_Optional_base" }
%"struct.std::_Optional_base" = type { %"struct.std::_Optional_payload" }
%"struct.std::_Optional_payload" = type { %"struct.std::_Optional_payload_base.base", [7 x i8] }
%"struct.std::_Optional_payload_base.base" = type <{ %"union.std::_Optional_payload_base<const Luau::TypePackVar *>::_Storage", i8 }>
%"union.std::_Optional_payload_base<const Luau::TypePackVar *>::_Storage" = type { ptr }
%"struct.Luau::TypePack" = type { %"class.std::vector.9", %"class.std::optional" }
%"class.std::vector.9" = type { %"struct.std::_Vector_base.10" }
%"struct.std::_Vector_base.10" = type { %"struct.std::_Vector_base<const Luau::Type *, std::allocator<const Luau::Type *>>::_Vector_impl" }
%"struct.std::_Vector_base<const Luau::Type *, std::allocator<const Luau::Type *>>::_Vector_impl" = type { %"struct.std::_Vector_base<const Luau::Type *, std::allocator<const Luau::Type *>>::_Vector_impl_data" }
%"struct.std::_Vector_base<const Luau::Type *, std::allocator<const Luau::Type *>>::_Vector_impl_data" = type { ptr, ptr, ptr }
%"struct.std::_Optional_payload_base" = type <{ %"union.std::_Optional_payload_base<const Luau::TypePackVar *>::_Storage", i8, [7 x i8] }>

; Function Attrs: mustprogress nounwind uwtable
define linkonce_odr dso_local noundef ptr @_ZNK4Luau7VariantIJNS_9Unifiable5BoundIPKNS_11TypePackVarEEENS1_5ErrorIS5_EENS_12FreeTypePackENS_15GenericTypePackENS_8TypePackENS_16VariadicTypePackENS_15BlockedTypePackENS_28TypeFunctionInstanceTypePackEEE6get_ifISC_EEPKT_v(ptr noundef nonnull align 8 dereferenceable(72) %0) #7 comdat align 2 {
  %2 = alloca ptr, align 8
  %3 = alloca i32, align 4
  store ptr %0, ptr %2, align 8, !tbaa !48
  %4 = load ptr, ptr %2, align 8
  call void @llvm.lifetime.start.p0(i64 4, ptr %3) #17
  store i32 5, ptr %3, align 4, !tbaa !4
  %5 = getelementptr inbounds nuw %"class.Luau::Variant", ptr %4, i32 0, i32 0
  %6 = load i32, ptr %5, align 8, !tbaa !55
  %7 = icmp eq i32 5, %6
  br i1 %7, label %8, label %10

8:                                                ; preds = %1
  %9 = getelementptr inbounds nuw %"class.Luau::Variant", ptr %4, i32 0, i32 2
  br label %11

10:                                               ; preds = %1
  br label %11

11:                                               ; preds = %10, %8
  %12 = phi ptr [ %9, %8 ], [ null, %10 ]
  call void @llvm.lifetime.end.p0(i64 4, ptr %3) #17
  ret ptr %12
}

; Function Attrs: mustprogress nounwind uwtable
define linkonce_odr dso_local noundef nonnull align 8 dereferenceable(8) ptr @_ZNKSt22_Optional_payload_baseIPKN4Luau11TypePackVarEE6_M_getEv(ptr noundef nonnull align 8 dereferenceable(9) %0) #7 comdat align 2 {
  %2 = alloca ptr, align 8
  store ptr %0, ptr %2, align 8, !tbaa !176
  %3 = load ptr, ptr %2, align 8
  %4 = getelementptr inbounds nuw %"struct.std::_Optional_payload_base", ptr %3, i32 0, i32 0
  ret ptr %4
}

; Function Attrs: mustprogress nounwind uwtable
define linkonce_odr dso_local noundef ptr @_ZNK4Luau7VariantIJNS_9Unifiable5BoundIPKNS_11TypePackVarEEENS1_5ErrorIS5_EENS_12FreeTypePackENS_15GenericTypePackENS_8TypePackENS_16VariadicTypePackENS_15BlockedTypePackENS_28TypeFunctionInstanceTypePackEEE6get_ifISB_EEPKT_v(ptr noundef nonnull align 8 dereferenceable(72) %0) #7 comdat align 2 {
  %2 = alloca ptr, align 8
  %3 = alloca i32, align 4
  store ptr %0, ptr %2, align 8, !tbaa !48
  %4 = load ptr, ptr %2, align 8
  call void @llvm.lifetime.start.p0(i64 4, ptr %3) #17
  store i32 4, ptr %3, align 4, !tbaa !4
  %5 = getelementptr inbounds nuw %"class.Luau::Variant", ptr %4, i32 0, i32 0
  %6 = load i32, ptr %5, align 8, !tbaa !55
  %7 = icmp eq i32 4, %6
  br i1 %7, label %8, label %10

8:                                                ; preds = %1
  %9 = getelementptr inbounds nuw %"class.Luau::Variant", ptr %4, i32 0, i32 2
  br label %11

10:                                               ; preds = %1
  br label %11

11:                                               ; preds = %10, %8
  %12 = phi ptr [ %9, %8 ], [ null, %10 ]
  call void @llvm.lifetime.end.p0(i64 4, ptr %3) #17
  ret ptr %12
}

; Function Attrs: mustprogress uwtable
define linkonce_odr dso_local noundef ptr @_ZN4Luau6get_ifINS_16VariadicTypePackEJNS_9Unifiable5BoundIPKNS_11TypePackVarEEENS2_5ErrorIS6_EENS_12FreeTypePackENS_15GenericTypePackENS_8TypePackES1_NS_15BlockedTypePackENS_28TypeFunctionInstanceTypePackEEEEPKT_PKNS_7VariantIJDpT0_EEE(ptr noundef %0) #2 comdat {
  %2 = alloca ptr, align 8
  store ptr %0, ptr %2, align 8, !tbaa !48
  %3 = load ptr, ptr %2, align 8, !tbaa !48
  %4 = icmp ne ptr %3, null
  br i1 %4, label %5, label %8

5:                                                ; preds = %1
  %6 = load ptr, ptr %2, align 8, !tbaa !48
  %7 = call noundef ptr @_ZNK4Luau7VariantIJNS_9Unifiable5BoundIPKNS_11TypePackVarEEENS1_5ErrorIS5_EENS_12FreeTypePackENS_15GenericTypePackENS_8TypePackENS_16VariadicTypePackENS_15BlockedTypePackENS_28TypeFunctionInstanceTypePackEEE6get_ifISC_EEPKT_v(ptr noundef nonnull align 8 dereferenceable(72) %6)
  br label %9

8:                                                ; preds = %1
  br label %9

9:                                                ; preds = %8, %5
  %10 = phi ptr [ %7, %5 ], [ null, %8 ]
  ret ptr %10
}

; Function Attrs: mustprogress nounwind uwtable
define linkonce_odr dso_local noundef nonnull align 8 dereferenceable(8) ptr @_ZNKSt19_Optional_base_implIPKN4Luau11TypePackVarESt14_Optional_baseIS3_Lb1ELb1EEE6_M_getEv(ptr noundef nonnull align 1 dereferenceable(1) %0) #7 comdat align 2 {
  %2 = alloca ptr, align 8
  store ptr %0, ptr %2, align 8, !tbaa !172
  %3 = load ptr, ptr %2, align 8
  br label %4

4:                                                ; preds = %1
  br label %5

5:                                                ; preds = %4
  br label %6

6:                                                ; preds = %5
  %7 = getelementptr inbounds nuw %"struct.std::_Optional_base", ptr %3, i32 0, i32 0
  %8 = call noundef nonnull align 8 dereferenceable(8) ptr @_ZNKSt22_Optional_payload_baseIPKN4Luau11TypePackVarEE6_M_getEv(ptr noundef nonnull align 8 dereferenceable(9) %7) #17
  ret ptr %8
}

; Function Attrs: mustprogress nounwind uwtable
define linkonce_odr dso_local noundef zeroext i1 @_ZNKSt19_Optional_base_implIPKN4Luau11TypePackVarESt14_Optional_baseIS3_Lb1ELb1EEE13_M_is_engagedEv(ptr noundef nonnull align 1 dereferenceable(1) %0) #7 comdat align 2 {
  %2 = alloca ptr, align 8
  store ptr %0, ptr %2, align 8, !tbaa !172
  %3 = load ptr, ptr %2, align 8
  %4 = getelementptr inbounds nuw %"struct.std::_Optional_base", ptr %3, i32 0, i32 0
  %5 = getelementptr inbounds nuw %"struct.std::_Optional_payload_base", ptr %4, i32 0, i32 1
  %6 = load i8, ptr %5, align 8, !tbaa !174, !range !37, !noundef !38
  %7 = trunc i8 %6 to i1
  ret i1 %7
}

; Function Attrs: mustprogress uwtable
define linkonce_odr dso_local noundef ptr @_ZN4Luau6get_ifINS_8TypePackEJNS_9Unifiable5BoundIPKNS_11TypePackVarEEENS2_5ErrorIS6_EENS_12FreeTypePackENS_15GenericTypePackES1_NS_16VariadicTypePackENS_15BlockedTypePackENS_28TypeFunctionInstanceTypePackEEEEPKT_PKNS_7VariantIJDpT0_EEE(ptr noundef %0) #2 comdat {
  %2 = alloca ptr, align 8
  store ptr %0, ptr %2, align 8, !tbaa !48
  %3 = load ptr, ptr %2, align 8, !tbaa !48
  %4 = icmp ne ptr %3, null
  br i1 %4, label %5, label %8

5:                                                ; preds = %1
  %6 = load ptr, ptr %2, align 8, !tbaa !48
  %7 = call noundef ptr @_ZNK4Luau7VariantIJNS_9Unifiable5BoundIPKNS_11TypePackVarEEENS1_5ErrorIS5_EENS_12FreeTypePackENS_15GenericTypePackENS_8TypePackENS_16VariadicTypePackENS_15BlockedTypePackENS_28TypeFunctionInstanceTypePackEEE6get_ifISB_EEPKT_v(ptr noundef nonnull align 8 dereferenceable(72) %6)
  br label %9

8:                                                ; preds = %1
  br label %9

9:                                                ; preds = %8, %5
  %10 = phi ptr [ %7, %5 ], [ null, %8 ]
  ret ptr %10
}

; Function Attrs: mustprogress uwtable
define linkonce_odr dso_local noundef ptr @_ZN4Luau3getINS_16VariadicTypePackEEEPKT_PKNS_11TypePackVarE(ptr noundef %0) #2 comdat {
  %2 = alloca ptr, align 8
  store ptr %0, ptr %2, align 8, !tbaa !46
  %3 = load ptr, ptr %2, align 8, !tbaa !46
  %4 = getelementptr inbounds nuw %"struct.Luau::TypePackVar", ptr %3, i32 0, i32 0
  %5 = call noundef ptr @_ZN4Luau6get_ifINS_16VariadicTypePackEJNS_9Unifiable5BoundIPKNS_11TypePackVarEEENS2_5ErrorIS6_EENS_12FreeTypePackENS_15GenericTypePackENS_8TypePackES1_NS_15BlockedTypePackENS_28TypeFunctionInstanceTypePackEEEEPKT_PKNS_7VariantIJDpT0_EEE(ptr noundef %4)
  ret ptr %5
}

; Function Attrs: mustprogress nounwind uwtable
define linkonce_odr dso_local noundef nonnull align 8 dereferenceable(8) ptr @_ZNKRSt8optionalIPKN4Luau11TypePackVarEEdeEv(ptr noundef nonnull align 8 dereferenceable(16) %0) #7 comdat align 2 {
  %2 = alloca ptr, align 8
  store ptr %0, ptr %2, align 8, !tbaa !84
  %3 = load ptr, ptr %2, align 8
  %4 = call noundef nonnull align 8 dereferenceable(8) ptr @_ZNKSt19_Optional_base_implIPKN4Luau11TypePackVarESt14_Optional_baseIS3_Lb1ELb1EEE6_M_getEv(ptr noundef nonnull align 1 dereferenceable(1) %3) #17
  ret ptr %4
}

; Function Attrs: mustprogress nounwind uwtable
define linkonce_odr dso_local noundef zeroext i1 @_ZNKSt8optionalIPKN4Luau11TypePackVarEEcvbEv(ptr noundef nonnull align 8 dereferenceable(16) %0) #7 comdat align 2 {
  %2 = alloca ptr, align 8
  store ptr %0, ptr %2, align 8, !tbaa !84
  %3 = load ptr, ptr %2, align 8
  %4 = call noundef zeroext i1 @_ZNKSt19_Optional_base_implIPKN4Luau11TypePackVarESt14_Optional_baseIS3_Lb1ELb1EEE13_M_is_engagedEv(ptr noundef nonnull align 1 dereferenceable(1) %3) #17
  ret i1 %4
}

; Function Attrs: mustprogress uwtable
define linkonce_odr dso_local noundef ptr @_ZN4Luau3getINS_8TypePackEEEPKT_PKNS_11TypePackVarE(ptr noundef %0) #2 comdat {
  %2 = alloca ptr, align 8
  store ptr %0, ptr %2, align 8, !tbaa !46
  %3 = load ptr, ptr %2, align 8, !tbaa !46
  %4 = getelementptr inbounds nuw %"struct.Luau::TypePackVar", ptr %3, i32 0, i32 0
  %5 = call noundef ptr @_ZN4Luau6get_ifINS_8TypePackEJNS_9Unifiable5BoundIPKNS_11TypePackVarEEENS2_5ErrorIS6_EENS_12FreeTypePackENS_15GenericTypePackES1_NS_16VariadicTypePackENS_15BlockedTypePackENS_28TypeFunctionInstanceTypePackEEEEPKT_PKNS_7VariantIJDpT0_EEE(ptr noundef %4)
  ret ptr %5
}

; Function Attrs: mustprogress uwtable
define dso_local noundef zeroext i1 @_ZN4Luau6finiteEPKNS_11TypePackVarEPNS_6TxnLogE(ptr noundef %0, ptr noundef %1) #2 {
  %3 = alloca i1, align 1
  %4 = alloca ptr, align 8
  %5 = alloca ptr, align 8
  %6 = alloca ptr, align 8
  %7 = alloca i32, align 4
  store ptr %0, ptr %4, align 8, !tbaa !46
  store ptr %1, ptr %5, align 8, !tbaa !73
  %8 = load ptr, ptr %5, align 8, !tbaa !73
  %9 = icmp ne ptr %8, null
  br i1 %9, label %10, label %14

10:                                               ; preds = %2
  %11 = load ptr, ptr %5, align 8, !tbaa !73
  %12 = load ptr, ptr %4, align 8, !tbaa !46
  %13 = call noundef ptr @_ZNK4Luau6TxnLog6followEPKNS_11TypePackVarE(ptr noundef nonnull align 8 dereferenceable(128) %11, ptr noundef %12)
  br label %17

14:                                               ; preds = %2
  %15 = load ptr, ptr %4, align 8, !tbaa !46
  %16 = call noundef ptr @_ZN4Luau6followEPKNS_11TypePackVarE(ptr noundef %15)
  br label %17

17:                                               ; preds = %14, %10
  %18 = phi ptr [ %13, %10 ], [ %16, %14 ]
  store ptr %18, ptr %4, align 8, !tbaa !46
  call void @llvm.lifetime.start.p0(i64 8, ptr %6) #17
  %19 = load ptr, ptr %4, align 8, !tbaa !46
  %20 = call noundef ptr @_ZN4Luau3getINS_8TypePackEEEPKT_PKNS_11TypePackVarE(ptr noundef %19)
  store ptr %20, ptr %6, align 8, !tbaa !95
  %21 = load ptr, ptr %6, align 8, !tbaa !95
  %22 = icmp ne ptr %21, null
  br i1 %22, label %23, label %37

23:                                               ; preds = %17
  %24 = load ptr, ptr %6, align 8, !tbaa !95
  %25 = getelementptr inbounds nuw %"struct.Luau::TypePack", ptr %24, i32 0, i32 1
  %26 = call noundef zeroext i1 @_ZNKSt8optionalIPKN4Luau11TypePackVarEEcvbEv(ptr noundef nonnull align 8 dereferenceable(16) %25) #17
  br i1 %26, label %27, label %34

27:                                               ; preds = %23
  %28 = load ptr, ptr %6, align 8, !tbaa !95
  %29 = getelementptr inbounds nuw %"struct.Luau::TypePack", ptr %28, i32 0, i32 1
  %30 = call noundef nonnull align 8 dereferenceable(8) ptr @_ZNKRSt8optionalIPKN4Luau11TypePackVarEEdeEv(ptr noundef nonnull align 8 dereferenceable(16) %29) #17
  %31 = load ptr, ptr %30, align 8, !tbaa !46
  %32 = load ptr, ptr %5, align 8, !tbaa !73
  %33 = call noundef zeroext i1 @_ZN4Luau6finiteEPKNS_11TypePackVarEPNS_6TxnLogE(ptr noundef %31, ptr noundef %32)
  br label %35

34:                                               ; preds = %23
  br label %35

35:                                               ; preds = %34, %27
  %36 = phi i1 [ %33, %27 ], [ true, %34 ]
  store i1 %36, ptr %3, align 1
  store i32 1, ptr %7, align 4
  br label %38

37:                                               ; preds = %17
  store i32 0, ptr %7, align 4
  br label %38

38:                                               ; preds = %37, %35
  call void @llvm.lifetime.end.p0(i64 8, ptr %6) #17
  %39 = load i32, ptr %7, align 4
  switch i32 %39, label %48 [
    i32 0, label %40
    i32 1, label %46
  ]

40:                                               ; preds = %38
  %41 = load ptr, ptr %4, align 8, !tbaa !46
  %42 = call noundef ptr @_ZN4Luau3getINS_16VariadicTypePackEEEPKT_PKNS_11TypePackVarE(ptr noundef %41)
  %43 = icmp ne ptr %42, null
  br i1 %43, label %44, label %45

44:                                               ; preds = %40
  store i1 false, ptr %3, align 1
  br label %46

45:                                               ; preds = %40
  store i1 true, ptr %3, align 1
  br label %46

46:                                               ; preds = %45, %44, %38
  %47 = load i1, ptr %3, align 1
  ret i1 %47

48:                                               ; preds = %38
  unreachable
}